target datalayout = "e-m:e-p270:32:32-p271:32:32-p272:64:64-i64:64-i128:128-f80:128-n8:16:32:64-S128"
target triple = "x86_64-pc-linux-gnu"

%struct.time_meas = type { i64, ptr }

; Function Attrs: mustprogress uwtable
define void @_ZN9time_measC2ERlb(ptr noundef nonnull align 8 dereferenceable(16) %0, ptr noundef nonnull align 8 dereferenceable(8) %1, i1 noundef zeroext %2) unnamed_addr #0 align 2 {
  %4 = alloca ptr, align 8
  %5 = alloca ptr, align 8
  %6 = alloca i8, align 1
  store ptr %0, ptr %4, align 8, !tbaa !3
  store ptr %1, ptr %5, align 8, !tbaa !8
  %7 = zext i1 %2 to i8
  store i8 %7, ptr %6, align 1, !tbaa !10
  %8 = load ptr, ptr %4, align 8
  %9 = getelementptr inbounds nuw %struct.time_meas, ptr %8, i32 0, i32 0
  %10 = load i8, ptr %6, align 1, !tbaa !10, !range !12, !noundef !13
  %11 = trunc i8 %10 to i1
  br i1 %11, label %12, label %13

12:                                               ; preds = %3
  br label %15

13:                                               ; preds = %3
  %14 = call i64 @ggml_time_us()
  br label %15

15:                                               ; preds = %13, %12
  %16 = phi i64 [ -1, %12 ], [ %14, %13 ]
  store i64 %16, ptr %9, align 8, !tbaa !14
  %17 = getelementptr inbounds nuw %struct.time_meas, ptr %8, i32 0, i32 1
  %18 = load ptr, ptr %5, align 8, !tbaa !8
  store ptr %18, ptr %17, align 8, !tbaa !8
  ret void
}