; Function Attrs: mustprogress uwtable
define void @_ZN9time_measC2ERlb(ptr noundef nonnull writeonly align 8 captures(none) dereferenceable(16) initializes((0, 16)) %0, ptr noundef nonnull align 8 dereferenceable(8) %1, i1 noundef zeroext %2) unnamed_addr #0 align 2 {
  br i1 %2, label %6, label %4

4:                                                ; preds = %3
  %5 = tail call i64 @ggml_time_us()
  br label %6

6:                                                ; preds = %3, %4
  %7 = phi i64 [ %5, %4 ], [ -1, %3 ]
  store i64 %7, ptr %0, align 8, !tbaa !3
  %8 = getelementptr inbounds nuw i8, ptr %0, i64 8
  store ptr %1, ptr %8, align 8, !tbaa !10
  ret void
}